target datalayout = "e-m:e-p270:32:32-p271:32:32-p272:64:64-i64:64-i128:128-f80:128-n8:16:32:64-S128"
target triple = "x86_64-unknown-linux-gnu"

%"class.icu_75::numparse::impl::AffixPatternMatcherBuilder" = type { %"class.icu_75::number::impl::TokenConsumer", %"class.icu_75::numparse::impl::MutableMatcherCollection", %"class.icu_75::MaybeStackArray.0", i32, i32, ptr, ptr, ptr }
%"class.icu_75::number::impl::TokenConsumer" = type { ptr }
%"class.icu_75::numparse::impl::MutableMatcherCollection" = type { ptr }
%"class.icu_75::MaybeStackArray.0" = type { ptr, i32, i8, [3 x ptr] }

@_ZTVN6icu_756number4impl13TokenConsumerE = external unnamed_addr constant { [5 x ptr] }, align 8

; Function Attrs: mustprogress nounwind uwtable
define linkonce_odr void @_ZN6icu_758numparse4impl24MutableMatcherCollectionD2Ev(ptr noundef nonnull align 8 dereferenceable(8) %this) unnamed_addr #0 comdat align 2 {
entry:
  %this.addr = alloca ptr, align 8
  store ptr %this, ptr %this.addr, align 8
  ret void
}

; Function Attrs: mustprogress nounwind uwtable
define linkonce_odr void @_ZN6icu_7515MaybeStackArrayIPKNS_8numparse4impl18NumberParseMatcherELi3EEC2Ev(ptr noundef nonnull align 8 dereferenceable(40) %this) unnamed_addr #0 comdat align 2 {
entry:
  %this.addr = alloca ptr, align 8
  store ptr %this, ptr %this.addr, align 8
  %this1 = load ptr, ptr %this.addr, align 8
  %ptr = getelementptr inbounds %"class.icu_75::MaybeStackArray.0", ptr %this1, i32 0, i32 0
  %stackArray = getelementptr inbounds %"class.icu_75::MaybeStackArray.0", ptr %this1, i32 0, i32 3
  %arraydecay = getelementptr inbounds [3 x ptr], ptr %stackArray, i64 0, i64 0
  store ptr %arraydecay, ptr %ptr, align 8
  %capacity = getelementptr inbounds %"class.icu_75::MaybeStackArray.0", ptr %this1, i32 0, i32 1
  store i32 3, ptr %capacity, align 8
  %needToRelease = getelementptr inbounds %"class.icu_75::MaybeStackArray.0", ptr %this1, i32 0, i32 2
  store i8 0, ptr %needToRelease, align 4
  ret void
}

; Function Attrs: mustprogress nounwind uwtable
define linkonce_odr void @_ZN6icu_758numparse4impl24MutableMatcherCollectionC2Ev(ptr noundef nonnull align 8 dereferenceable(8) %this) unnamed_addr #0 comdat align 2 {
entry:
  %this.addr = alloca ptr, align 8
  store ptr %this, ptr %this.addr, align 8
  %this1 = load ptr, ptr %this.addr, align 8
  store ptr getelementptr inbounds ({ [5 x ptr] }, ptr @_ZTVN6icu_758numparse4impl24MutableMatcherCollectionE, i32 0, i32 0, i32 2), ptr %this1, align 8
  ret void
}

; Function Attrs: mustprogress nounwind uwtable
define linkonce_odr void @_ZN6icu_756number4impl13TokenConsumerC2Ev(ptr noundef nonnull align 8 dereferenceable(8) %this) unnamed_addr #0 comdat align 2 {
entry:
  %this.addr = alloca ptr, align 8
  store ptr %this, ptr %this.addr, align 8
  %this1 = load ptr, ptr %this.addr, align 8
  store ptr getelementptr inbounds ({ [5 x ptr] }, ptr @_ZTVN6icu_756number4impl13TokenConsumerE, i32 0, i32 0, i32 2), ptr %this1, align 8
  ret void
}

; Function Attrs: mustprogress uwtable
define void @_ZN6icu_758numparse4impl26AffixPatternMatcherBuilderC2ERKNS_13UnicodeStringERNS1_26AffixTokenMatcherWarehouseEPNS1_17IgnorablesMatcherE(ptr noundef nonnull align 8 dereferenceable(88) %this, ptr noundef nonnull align 8 dereferenceable(64) %pattern, ptr noundef nonnull align 8 dereferenceable(1288) %warehouse, ptr noundef %ignorables) unnamed_addr #1 align 2 personality ptr @__gxx_personality_v0 {
entry:
  %this.addr = alloca ptr, align 8
  %pattern.addr = alloca ptr, align 8
  %warehouse.addr = alloca ptr, align 8
  %ignorables.addr = alloca ptr, align 8
  %exn.slot = alloca ptr, align 8
  %ehselector.slot = alloca i32, align 4
  store ptr %this, ptr %this.addr, align 8
  store ptr %pattern, ptr %pattern.addr, align 8
  store ptr %warehouse, ptr %warehouse.addr, align 8
  store ptr %ignorables, ptr %ignorables.addr, align 8
  %this1 = load ptr, ptr %this.addr, align 8
  call void @_ZN6icu_756number4impl13TokenConsumerC2Ev(ptr noundef nonnull align 8 dereferenceable(8) %this1) #13
  %0 = getelementptr inbounds i8, ptr %this1, i64 8
  call void @_ZN6icu_758numparse4impl24MutableMatcherCollectionC2Ev(ptr noundef nonnull align 8 dereferenceable(8) %0) #13
  store ptr getelementptr inbounds ({ [6 x ptr], [5 x ptr] }, ptr @_ZTVN6icu_758numparse4impl26AffixPatternMatcherBuilderE, i32 0, i32 0, i32 2), ptr %this1, align 8
  %add.ptr = getelementptr inbounds i8, ptr %this1, i64 8
  store ptr getelementptr inbounds ({ [6 x ptr], [5 x ptr] }, ptr @_ZTVN6icu_758numparse4impl26AffixPatternMatcherBuilderE, i32 0, i32 1, i32 2), ptr %add.ptr, align 8
  %fMatchers = getelementptr inbounds %"class.icu_75::numparse::impl::AffixPatternMatcherBuilder", ptr %this1, i32 0, i32 2
  invoke void @_ZN6icu_7515MaybeStackArrayIPKNS_8numparse4impl18NumberParseMatcherELi3EEC2Ev(ptr noundef nonnull align 8 dereferenceable(40) %fMatchers)
          to label %invoke.cont unwind label %lpad

invoke.cont:                                      ; preds = %entry
  %fMatchersLen = getelementptr inbounds %"class.icu_75::numparse::impl::AffixPatternMatcherBuilder", ptr %this1, i32 0, i32 3
  store i32 0, ptr %fMatchersLen, align 8
  %fLastTypeOrCp = getelementptr inbounds %"class.icu_75::numparse::impl::AffixPatternMatcherBuilder", ptr %this1, i32 0, i32 4
  store i32 0, ptr %fLastTypeOrCp, align 4
  %fPattern = getelementptr inbounds %"class.icu_75::numparse::impl::AffixPatternMatcherBuilder", ptr %this1, i32 0, i32 5
  %1 = load ptr, ptr %pattern.addr, align 8
  store ptr %1, ptr %fPattern, align 8
  %fWarehouse = getelementptr inbounds %"class.icu_75::numparse::impl::AffixPatternMatcherBuilder", ptr %this1, i32 0, i32 6
  %2 = load ptr, ptr %warehouse.addr, align 8
  store ptr %2, ptr %fWarehouse, align 8
  %fIgnorables = getelementptr inbounds %"class.icu_75::numparse::impl::AffixPatternMatcherBuilder", ptr %this1, i32 0, i32 7
  %3 = load ptr, ptr %ignorables.addr, align 8
  store ptr %3, ptr %fIgnorables, align 8
  ret void

lpad:                                             ; preds = %entry
  %4 = landingpad { ptr, i32 }
          cleanup
  %5 = extractvalue { ptr, i32 } %4, 0
  store ptr %5, ptr %exn.slot, align 8
  %6 = extractvalue { ptr, i32 } %4, 1
  store i32 %6, ptr %ehselector.slot, align 4
  %7 = getelementptr inbounds i8, ptr %this1, i64 8
  call void @_ZN6icu_758numparse4impl24MutableMatcherCollectionD2Ev(ptr noundef nonnull align 8 dereferenceable(8) %7) #13
  call void @_ZN6icu_756number4impl13TokenConsumerD2Ev(ptr noundef nonnull align 8 dereferenceable(8) %this1) #13
  br label %eh.resume

eh.resume:                                        ; preds = %lpad
  %exn = load ptr, ptr %exn.slot, align 8
  %sel = load i32, ptr %ehselector.slot, align 4
  %lpad.val = insertvalue { ptr, i32 } poison, ptr %exn, 0
  %lpad.val2 = insertvalue { ptr, i32 } %lpad.val, i32 %sel, 1
  resume { ptr, i32 } %lpad.val2
}