; Function Attrs: mustprogress nofree norecurse nosync nounwind willreturn memory(argmem: write) uwtable
define void @_ZN6icu_758numparse4impl26AffixPatternMatcherBuilderC2ERKNS_13UnicodeStringERNS1_26AffixTokenMatcherWarehouseEPNS1_17IgnorablesMatcherE(ptr noundef nonnull align 8 dereferenceable(88) %this, ptr noundef nonnull align 8 dereferenceable(64) %pattern, ptr noundef nonnull align 8 dereferenceable(1288) %warehouse, ptr noundef %ignorables) unnamed_addr #6 align 2 personality ptr @__gxx_personality_v0 {
entry:
  %0 = getelementptr inbounds i8, ptr %this, i64 8
  store ptr getelementptr inbounds ({ [6 x ptr], [5 x ptr] }, ptr @_ZTVN6icu_758numparse4impl26AffixPatternMatcherBuilderE, i64 0, i32 0, i64 2), ptr %this, align 8
  store ptr getelementptr inbounds ({ [6 x ptr], [5 x ptr] }, ptr @_ZTVN6icu_758numparse4impl26AffixPatternMatcherBuilderE, i64 0, i32 1, i64 2), ptr %0, align 8
  %fMatchers = getelementptr inbounds i8, ptr %this, i64 16
  %stackArray.i = getelementptr inbounds i8, ptr %this, i64 32
  store ptr %stackArray.i, ptr %fMatchers, align 8
  %capacity.i = getelementptr inbounds i8, ptr %this, i64 24
  store i32 3, ptr %capacity.i, align 8
  %needToRelease.i = getelementptr inbounds i8, ptr %this, i64 28
  store i8 0, ptr %needToRelease.i, align 4
  %fMatchersLen = getelementptr inbounds i8, ptr %this, i64 56
  store i32 0, ptr %fMatchersLen, align 8
  %fLastTypeOrCp = getelementptr inbounds i8, ptr %this, i64 60
  store i32 0, ptr %fLastTypeOrCp, align 4
  %fPattern = getelementptr inbounds i8, ptr %this, i64 64
  store ptr %pattern, ptr %fPattern, align 8
  %fWarehouse = getelementptr inbounds i8, ptr %this, i64 72
  store ptr %warehouse, ptr %fWarehouse, align 8
  %fIgnorables = getelementptr inbounds i8, ptr %this, i64 80
  store ptr %ignorables, ptr %fIgnorables, align 8
  ret void
}